; Function Attrs: nounwind uwtable
define ptr @l_Lean_Elab_Term_withSynthesize___rarg___boxed(ptr noundef %0, ptr noundef %1, ptr noundef %2) #0 {
  %4 = ptrtoint ptr %2 to i64
  %5 = and i64 %4, 1
  %.not = icmp eq i64 %5, 0
  br i1 %.not, label %6, label %lean_dec.exit

6:                                                ; preds = %3
  %7 = load i32, ptr %2, align 4, !tbaa !7
  %8 = icmp sgt i32 %7, 1
  br i1 %8, label %9, label %11, !prof !12

9:                                                ; preds = %6
  %10 = add nsw i32 %7, -1
  store i32 %10, ptr %2, align 4, !tbaa !7
  br label %lean_dec.exit

11:                                               ; preds = %6
  %.not.i = icmp eq i32 %7, 0
  br i1 %.not.i, label %lean_dec.exit, label %12

12:                                               ; preds = %11
  tail call void @lean_dec_ref_cold(ptr noundef nonnull %2) #7
  br label %lean_dec.exit

lean_dec.exit:                                    ; preds = %12, %11, %9, %3
  tail call void @lean_inc_heartbeat() #7
  %13 = tail call noalias ptr @mi_malloc_small(i64 noundef 32) #7
  %14 = icmp eq ptr %13, null
  br i1 %14, label %15, label %l_Lean_Elab_Term_withSynthesize___rarg.exit

15:                                               ; preds = %lean_dec.exit
  tail call void @lean_internal_panic_out_of_memory() #8
  unreachable

l_Lean_Elab_Term_withSynthesize___rarg.exit:      ; preds = %lean_dec.exit
  %16 = and i64 %4, 510
  %17 = or disjoint i64 %16, 1
  %18 = inttoptr i64 %17 to ptr
  %19 = getelementptr inbounds nuw i8, ptr %13, i64 4
  store i32 1, ptr %13, align 4, !tbaa !7
  store i32 -184549344, ptr %19, align 4
  %20 = getelementptr inbounds nuw i8, ptr %13, i64 8
  store ptr @l_Lean_Elab_Term_withSynthesize___rarg___lambda__1___boxed, ptr %20, align 8, !tbaa !10
  %21 = getelementptr inbounds nuw i8, ptr %13, i64 16
  store i16 10, ptr %21, align 8, !tbaa !17
  %22 = getelementptr inbounds nuw i8, ptr %13, i64 18
  store i16 1, ptr %22, align 2, !tbaa !17
  %23 = getelementptr inbounds nuw i8, ptr %13, i64 24
  store ptr %18, ptr %23, align 8, !tbaa !10
  %24 = tail call ptr @lean_apply_3(ptr noundef %0, ptr noundef nonnull inttoptr (i64 1 to ptr), ptr noundef nonnull %13, ptr noundef %1) #7
  ret ptr %24
}